target datalayout = "e-m:e-p270:32:32-p271:32:32-p272:64:64-i64:64-i128:128-f80:128-n8:16:32:64-S128"
target triple = "x86_64-pc-linux-gnu"

@__func__.PyEval_AcquireThread = private unnamed_addr constant [21 x i8] c"PyEval_AcquireThread\00", align 1
@.str.9 = private unnamed_addr constant [173 x i8] c"the function must be called with the GIL held, after Python initialization and before Python finalization, but the GIL is released (the current Python thread state is NULL)\00", align 1

; Function Attrs: inlinehint nounwind uwtable
define internal void @_Py_EnsureFuncTstateNotNULL(ptr noundef %0, ptr noundef %1) #2 {
  %3 = alloca ptr, align 8
  %4 = alloca ptr, align 8
  store ptr %0, ptr %3, align 8, !tbaa !184
  store ptr %1, ptr %4, align 8, !tbaa !95
  %5 = load ptr, ptr %4, align 8, !tbaa !95
  %6 = icmp eq ptr %5, null
  br i1 %6, label %7, label %9

7:                                                ; preds = %2
  %8 = load ptr, ptr %3, align 8, !tbaa !184
  call void @_Py_FatalErrorFunc(ptr noundef %8, ptr noundef @.str.9) #12
  unreachable

9:                                                ; preds = %2
  ret void
}

; Function Attrs: nounwind uwtable
define dso_local void @PyEval_AcquireThread(ptr noundef %0) #0 {
  %2 = alloca ptr, align 8
  store ptr %0, ptr %2, align 8, !tbaa !95
  %3 = load ptr, ptr %2, align 8, !tbaa !95
  call void @_Py_EnsureFuncTstateNotNULL(ptr noundef @__func__.PyEval_AcquireThread, ptr noundef %3)
  %4 = load ptr, ptr %2, align 8, !tbaa !95
  call void @_PyThreadState_Attach(ptr noundef %4)
  ret void
}