; Function Attrs: nounwind uwtable
define dso_local void @PyEval_AcquireThread(ptr noundef %0) local_unnamed_addr #4 {
  %2 = icmp eq ptr %0, null
  br i1 %2, label %3, label %_Py_EnsureFuncTstateNotNULL.exit

3:                                                ; preds = %1
  tail call void @_Py_FatalErrorFunc(ptr noundef nonnull @__func__.PyEval_AcquireThread, ptr noundef nonnull @.str.9) #15
  unreachable

_Py_EnsureFuncTstateNotNULL.exit:                 ; preds = %1
  tail call void @_PyThreadState_Attach(ptr noundef nonnull %0) #14
  ret void
}